(dp0
S''
p1
(dp2
S'status'
p3
S'ZERO_RESULTS'
p4
sS'results'
p5
(lp6
ssS'Brooklyn,+United+States'
p7
(dp8
S'status'
p9
S'OK'
p10
sS'results'
p11
(lp12
(dp13
S'geometry'
p14
(dp15
S'location_type'
p16
S'APPROXIMATE'
p17
sS'bounds'
p18
(dp19
S'northeast'
p20
(dp21
S'lat'
p22
F40.739446
sS'lng'
p23
F-73.8333651
ssS'southwest'
p24
(dp25
g22
F40.551042
sg23
F-74.05663
sssS'viewport'
p26
(dp27
g20
(dp28
g22
F40.739446
sg23
F-73.8333651
ssg24
(dp29
g22
F40.551042
sg23
F-74.05663
sssS'location'
p30
(dp31
g22
F40.65
sg23
F-73.95
sssS'address_components'
p32
(lp33
(dp34
S'long_name'
p35
S'Brooklyn'
p36
sS'types'
p37
(lp38
S'sublocality'
p39
aS'political'
p40
asS'short_name'
p41
S'Brooklyn'
p42
sa(dp43
g35
S'New York'
p44
sg37
(lp45
S'locality'
p46
aS'political'
p47
asg41
S'New York'
p48
sa(dp49
g35
S'Kings'
p50
sg37
(lp51
S'administrative_area_level_2'
p52
aS'political'
p53
asg41
S'Kings'
p54
sa(dp55
g35
S'New York'
p56
sg37
(lp57
S'administrative_area_level_1'
p58
aS'political'
p59
asg41
S'NY'
p60
sa(dp61
g35
S'United States'
p62
sg37
(lp63
S'country'
p64
aS'political'
p65
asg41
S'US'
p66
sasS'formatted_address'
p67
S'Brooklyn, NY, USA'
p68
sg37
(lp69
S'sublocality'
p70
aS'political'
p71
asS'postcode_localities'
p72
(lp73
sa(dp74
g14
(dp75
g16
S'APPROXIMATE'
p76
sg18
(dp77
g20
(dp78
g22
F41.4625251
sg23
F-81.7285808
ssg24
(dp79
g22
F41.4184059
sg23
F-81.769655
sssg26
(dp80
g20
(dp81
g22
F41.4625251
sg23
F-81.7285808
ssg24
(dp82
g22
F41.4184059
sg23
F-81.769655
sssg30
(dp83
g22
F41.4301349
sg23
F-81.7512107
sssg32
(lp84
(dp85
g35
S'Brooklyn'
p86
sg37
(lp87
S'locality'
p88
aS'political'
p89
asg41
S'Brooklyn'
p90
sa(dp91
g35
S'Cuyahoga'
p92
sg37
(lp93
S'administrative_area_level_2'
p94
aS'political'
p95
asg41
S'Cuyahoga'
p96
sa(dp97
g35
S'Ohio'
p98
sg37
(lp99
S'administrative_area_level_1'
p100
aS'political'
p101
asg41
S'OH'
p102
sa(dp103
g35
S'United States'
p104
sg37
(lp105
S'country'
p106
aS'political'
p107
asg41
S'US'
p108
sasg67
S'Brooklyn, OH, USA'
p109
sg37
(lp110
S'locality'
p111
aS'political'
p112
asg72
(lp113
sa(dp114
g14
(dp115
g16
S'APPROXIMATE'
p116
sg18
(dp117
g20
(dp118
g22
F41.8269779
sg23
F-71.8861189
ssg24
(dp119
g22
F41.742374
sg23
F-72.022903
sssg26
(dp120
g20
(dp121
g22
F41.8269779
sg23
F-71.8861189
ssg24
(dp122
g22
F41.742374
sg23
F-72.022903
sssg30
(dp123
g22
F41.7881236
sg23
F-71.9497216
sssg32
(lp124
(dp125
g35
S'Brooklyn'
p126
sg37
(lp127
S'locality'
p128
aS'political'
p129
asg41
S'Brooklyn'
p130
sa(dp131
g35
S'Windham'
p132
sg37
(lp133
S'administrative_area_level_2'
p134
aS'political'
p135
asg41
S'Windham'
p136
sa(dp137
g35
S'Connecticut'
p138
sg37
(lp139
S'administrative_area_level_1'
p140
aS'political'
p141
asg41
S'CT'
p142
sa(dp143
g35
S'United States'
p144
sg37
(lp145
S'country'
p146
aS'political'
p147
asg41
S'US'
p148
sasg67
S'Brooklyn, CT, USA'
p149
sg37
(lp150
S'locality'
p151
aS'political'
p152
asg72
(lp153
sa(dp154
g14
(dp155
g16
S'APPROXIMATE'
p156
sg18
(dp157
g20
(dp158
g22
F42.113681
sg23
F-84.239462
ssg24
(dp159
g22
F42.09663
sg23
F-84.259824
sssg26
(dp160
g20
(dp161
g22
F42.113681
sg23
F-84.239462
ssg24
(dp162
g22
F42.09663
sg23
F-84.259824
sssg30
(dp163
g22
F42.105874
sg23
F-84.2482819
sssg32
(lp164
(dp165
g35
S'Brooklyn'
p166
sg37
(lp167
S'locality'
p168
aS'political'
p169
asg41
S'Brooklyn'
p170
sa(dp171
g35
S'Columbia'
p172
sg37
(lp173
S'administrative_area_level_3'
p174
aS'political'
p175
asg41
S'Columbia'
p176
sa(dp177
g35
S'Jackson'
p178
sg37
(lp179
S'administrative_area_level_2'
p180
aS'political'
p181
asg41
S'Jackson'
p182
sa(dp183
g35
S'Michigan'
p184
sg37
(lp185
S'administrative_area_level_1'
p186
aS'political'
p187
asg41
S'MI'
p188
sa(dp189
g35
S'United States'
p190
sg37
(lp191
S'country'
p192
aS'political'
p193
asg41
S'US'
p194
sa(dp195
g35
S'49230'
p196
sg37
(lp197
S'postal_code'
p198
asg41
S'49230'
p199
sasg67
S'Brooklyn, MI 49230, USA'
p200
sg37
(lp201
S'locality'
p202
aS'political'
p203
asg72
(lp204
sa(dp205
g14
(dp206
g16
S'APPROXIMATE'
p207
sg18
(dp208
g20
(dp209
g22
F41.74879600000001
sg23
F-92.433474
ssg24
(dp210
g22
F41.7207239
sg23
F-92.4551329
sssg26
(dp211
g20
(dp212
g22
F41.74879600000001
sg23
F-92.433474
ssg24
(dp213
g22
F41.7207239
sg23
F-92.4551329
sssg30
(dp214
g22
F41.7315717
sg23
F-92.4453638
sssg32
(lp215
(dp216
g35
S'Brooklyn'
p217
sg37
(lp218
S'locality'
p219
aS'political'
p220
asg41
S'Brooklyn'
p221
sa(dp222
g35
S'Bear Creek'
p223
sg37
(lp224
S'administrative_area_level_3'
p225
aS'political'
p226
asg41
S'Bear Creek'
p227
sa(dp228
g35
S'Poweshiek'
p229
sg37
(lp230
S'administrative_area_level_2'
p231
aS'political'
p232
asg41
S'Poweshiek'
p233
sa(dp234
g35
S'Iowa'
p235
sg37
(lp236
S'administrative_area_level_1'
p237
aS'political'
p238
asg41
S'IA'
p239
sa(dp240
g35
S'United States'
p241
sg37
(lp242
S'country'
p243
aS'political'
p244
asg41
S'US'
p245
sa(dp246
g35
S'52211'
p247
sg37
(lp248
S'postal_code'
p249
asg41
S'52211'
p250
sasg67
S'Brooklyn, IA 52211, USA'
p251
sg37
(lp252
S'locality'
p253
aS'political'
p254
asg72
(lp255
sa(dp256
g14
(dp257
g16
S'APPROXIMATE'
p258
sg18
(dp259
g20
(dp260
g22
F42.862072
sg23
F-89.3607289
ssg24
(dp261
g22
F42.8449949
sg23
F-89.383453
sssg26
(dp262
g20
(dp263
g22
F42.862072
sg23
F-89.3607289
ssg24
(dp264
g22
F42.8449949
sg23
F-89.383453
sssg30
(dp265
g22
F42.8536139
sg23
F-89.3703963
sssg32
(lp266
(dp267
g35
S'Brooklyn'
p268
sg37
(lp269
S'locality'
p270
aS'political'
p271
asg41
S'Brooklyn'
p272
sa(dp273
g35
S'Green'
p274
sg37
(lp275
S'administrative_area_level_2'
p276
aS'political'
p277
asg41
S'Green'
p278
sa(dp279
g35
S'Wisconsin'
p280
sg37
(lp281
S'administrative_area_level_1'
p282
aS'political'
p283
asg41
S'WI'
p284
sa(dp285
g35
S'United States'
p286
sg37
(lp287
S'country'
p288
aS'political'
p289
asg41
S'US'
p290
sa(dp291
g35
S'53521'
p292
sg37
(lp293
S'postal_code'
p294
asg41
S'53521'
p295
sasg67
S'Brooklyn, WI 53521, USA'
p296
sg37
(lp297
S'locality'
p298
aS'political'
p299
asg72
(lp300
sassS'San+Francisco,+United+States'
p301
(dp302
S'status'
p303
S'OK'
p304
sS'results'
p305
(lp306
(dp307
S'geometry'
p308
(dp309
S'location_type'
p310
S'APPROXIMATE'
p311
sS'bounds'
p312
(dp313
S'northeast'
p314
(dp315
S'lat'
p316
F37.9297707
sS'lng'
p317
F-122.3279149
ssS'southwest'
p318
(dp319
g316
F37.6933354
sg317
F-123.1077733
sssS'viewport'
p320
(dp321
g314
(dp322
g316
F37.812
sg317
F-122.3482
ssg318
(dp323
g316
F37.70339999999999
sg317
F-122.527
sssS'location'
p324
(dp325
g316
F37.7749295
sg317
F-122.4194155
sssS'address_components'
p326
(lp327
(dp328
S'long_name'
p329
S'San Francisco'
p330
sS'types'
p331
(lp332
S'locality'
p333
aS'political'
p334
asS'short_name'
p335
S'SF'
p336
sa(dp337
g329
S'San Francisco'
p338
sg331
(lp339
S'administrative_area_level_2'
p340
aS'political'
p341
asg335
S'San Francisco'
p342
sa(dp343
g329
S'California'
p344
sg331
(lp345
S'administrative_area_level_1'
p346
aS'political'
p347
asg335
S'CA'
p348
sa(dp349
g329
S'United States'
p350
sg331
(lp351
S'country'
p352
aS'political'
p353
asg335
S'US'
p354
sasS'formatted_address'
p355
S'San Francisco, CA, USA'
p356
sg331
(lp357
S'locality'
p358
aS'political'
p359
asS'postcode_localities'
p360
(lp361
sassS'Los+Angeles,+United+States'
p362
(dp363
S'status'
p364
S'OK'
p365
sS'results'
p366
(lp367
(dp368
S'geometry'
p369
(dp370
S'location_type'
p371
S'APPROXIMATE'
p372
sS'bounds'
p373
(dp374
S'northeast'
p375
(dp376
S'lat'
p377
F34.3373061
sS'lng'
p378
F-118.1552891
ssS'southwest'
p379
(dp380
g377
F33.7036917
sg378
F-118.6681759
sssS'viewport'
p381
(dp382
g375
(dp383
g377
F34.3373061
sg378
F-118.1552891
ssg379
(dp384
g377
F33.7036917
sg378
F-118.6681759
sssS'location'
p385
(dp386
g377
F34.0522342
sg378
F-118.2436849
sssS'address_components'
p387
(lp388
(dp389
S'long_name'
p390
S'Los Angeles'
p391
sS'types'
p392
(lp393
S'locality'
p394
aS'political'
p395
asS'short_name'
p396
S'Los Angeles'
p397
sa(dp398
g390
S'Los Angeles'
p399
sg392
(lp400
S'administrative_area_level_2'
p401
aS'political'
p402
asg396
S'Los Angeles'
p403
sa(dp404
g390
S'California'
p405
sg392
(lp406
S'administrative_area_level_1'
p407
aS'political'
p408
asg396
S'CA'
p409
sa(dp410
g390
S'United States'
p411
sg392
(lp412
S'country'
p413
aS'political'
p414
asg396
S'US'
p415
sasS'formatted_address'
p416
S'Los Angeles, CA, USA'
p417
sg392
(lp418
S'locality'
p419
aS'political'
p420
asS'postcode_localities'
p421
(lp422
sa(dp423
g369
(dp424
g385
(dp425
g377
F28.4658333
sg378
F-99.0
ssg381
(dp426
g375
(dp427
g377
F28.4671822802915
sg378
F-98.99865101970849
ssg379
(dp428
g377
F28.4644843197085
sg378
F-99.00134898029151
sssg371
S'APPROXIMATE'
p429
ssg387
(lp430
(dp431
g390
S'Los Angeles'
p432
sg392
(lp433
S'locality'
p434
aS'political'
p435
asg396
S'Los Angeles'
p436
sa(dp437
g390
S'La Salle'
p438
sg392
(lp439
S'administrative_area_level_2'
p440
aS'political'
p441
asg396
S'La Salle'
p442
sa(dp443
g390
S'Texas'
p444
sg392
(lp445
S'administrative_area_level_1'
p446
aS'political'
p447
asg396
S'TX'
p448
sa(dp449
g390
S'United States'
p450
sg392
(lp451
S'country'
p452
aS'political'
p453
asg396
S'US'
p454
sa(dp455
g390
S'78021'
p456
sg392
(lp457
S'postal_code'
p458
asg396
S'78021'
p459
sasg416
S'Los Angeles, TX 78021, USA'
p460
sg392
(lp461
S'locality'
p462
aS'political'
p463
asg421
(lp464
sassS'New+York,+New+York,+United+States'
p465
(dp466
S'status'
p467
S'OK'
p468
sS'results'
p469
(lp470
(dp471
S'geometry'
p472
(dp473
S'location_type'
p474
S'APPROXIMATE'
p475
sS'bounds'
p476
(dp477
S'northeast'
p478
(dp479
S'lat'
p480
F40.9152414
sS'lng'
p481
F-73.70027209999999
ssS'southwest'
p482
(dp483
g480
F40.495908
sg481
F-74.2590879
sssS'viewport'
p484
(dp485
g478
(dp486
g480
F40.9152414
sg481
F-73.70027209999999
ssg482
(dp487
g480
F40.4959143
sg481
F-74.2557349
sssS'location'
p488
(dp489
g480
F40.7143528
sg481
F-74.00597309999999
sssS'address_components'
p490
(lp491
(dp492
S'long_name'
p493
S'New York'
p494
sS'types'
p495
(lp496
S'locality'
p497
aS'political'
p498
asS'short_name'
p499
S'New York'
p500
sa(dp501
g493
S'New York'
p502
sg495
(lp503
S'administrative_area_level_1'
p504
aS'political'
p505
asg499
S'NY'
p506
sa(dp507
g493
S'United States'
p508
sg495
(lp509
S'country'
p510
aS'political'
p511
asg499
S'US'
p512
sasS'formatted_address'
p513
S'New York, NY, USA'
p514
sg495
(lp515
S'locality'
p516
aS'political'
p517
asS'postcode_localities'
p518
(lp519
sa(dp520
g472
(dp521
g474
S'APPROXIMATE'
p522
sg476
(dp523
g478
(dp524
g480
F41.6018065
sg481
F-71.856214
ssg482
(dp525
g480
F39.49853299999999
sg481
F-75.3585939
sssg484
(dp526
g478
(dp527
g480
F41.6018065
sg481
F-71.856214
ssg482
(dp528
g480
F39.49853299999999
sg481
F-75.3585939
sssg488
(dp529
g480
F40.9590293
sg481
F-74.0300122
sssg490
(lp530
(dp531
g493
S'New York metropolitan area'
p532
sg495
(lp533
S'colloquial_area'
p534
aS'political'
p535
asg499
S'New York metropolitan area'
p536
sa(dp537
g493
S'United States'
p538
sg495
(lp539
S'country'
p540
aS'political'
p541
asg499
S'US'
p542
sasg513
S'New York metropolitan area, USA'
p543
sg495
(lp544
S'colloquial_area'
p545
aS'political'
p546
asg518
(lp547
sassS'New+York,+United+States'
p548
(dp549
S'status'
p550
S'OK'
p551
sS'results'
p552
(lp553
(dp554
S'geometry'
p555
(dp556
S'location_type'
p557
S'APPROXIMATE'
p558
sS'bounds'
p559
(dp560
S'northeast'
p561
(dp562
S'lat'
p563
F40.9152414
sS'lng'
p564
F-73.70027209999999
ssS'southwest'
p565
(dp566
g563
F40.495908
sg564
F-74.2590879
sssS'viewport'
p567
(dp568
g561
(dp569
g563
F40.9152414
sg564
F-73.70027209999999
ssg565
(dp570
g563
F40.4959143
sg564
F-74.2557349
sssS'location'
p571
(dp572
g563
F40.7143528
sg564
F-74.00597309999999
sssS'address_components'
p573
(lp574
(dp575
S'long_name'
p576
S'New York'
p577
sS'types'
p578
(lp579
S'locality'
p580
aS'political'
p581
asS'short_name'
p582
S'New York'
p583
sa(dp584
g576
S'New York'
p585
sg578
(lp586
S'administrative_area_level_1'
p587
aS'political'
p588
asg582
S'NY'
p589
sa(dp590
g576
S'United States'
p591
sg578
(lp592
S'country'
p593
aS'political'
p594
asg582
S'US'
p595
sasS'formatted_address'
p596
S'New York, NY, USA'
p597
sg578
(lp598
S'locality'
p599
aS'political'
p600
asS'postcode_localities'
p601
(lp602
sa(dp603
g555
(dp604
g557
S'APPROXIMATE'
p605
sg559
(dp606
g561
(dp607
g563
F41.6018065
sg564
F-71.856214
ssg565
(dp608
g563
F39.49853299999999
sg564
F-75.3585939
sssg567
(dp609
g561
(dp610
g563
F41.6018065
sg564
F-71.856214
ssg565
(dp611
g563
F39.49853299999999
sg564
F-75.3585939
sssg571
(dp612
g563
F40.9590293
sg564
F-74.0300122
sssg573
(lp613
(dp614
g576
S'New York metropolitan area'
p615
sg578
(lp616
S'colloquial_area'
p617
aS'political'
p618
asg582
S'New York metropolitan area'
p619
sa(dp620
g576
S'United States'
p621
sg578
(lp622
S'country'
p623
aS'political'
p624
asg582
S'US'
p625
sasg596
S'New York metropolitan area, USA'
p626
sg578
(lp627
S'colloquial_area'
p628
aS'political'
p629
asg601
(lp630
sassS'Brooklyn,+New+York,+United+States'
p631
(dp632
S'status'
p633
S'OK'
p634
sS'results'
p635
(lp636
(dp637
S'geometry'
p638
(dp639
S'location_type'
p640
S'APPROXIMATE'
p641
sS'bounds'
p642
(dp643
S'northeast'
p644
(dp645
S'lat'
p646
F40.739446
sS'lng'
p647
F-73.8333651
ssS'southwest'
p648
(dp649
g646
F40.551042
sg647
F-74.05663
sssS'viewport'
p650
(dp651
g644
(dp652
g646
F40.739446
sg647
F-73.8333651
ssg648
(dp653
g646
F40.551042
sg647
F-74.05663
sssS'location'
p654
(dp655
g646
F40.65
sg647
F-73.95
sssS'address_components'
p656
(lp657
(dp658
S'long_name'
p659
S'Brooklyn'
p660
sS'types'
p661
(lp662
S'sublocality'
p663
aS'political'
p664
asS'short_name'
p665
S'Brooklyn'
p666
sa(dp667
g659
S'New York'
p668
sg661
(lp669
S'locality'
p670
aS'political'
p671
asg665
S'New York'
p672
sa(dp673
g659
S'Kings'
p674
sg661
(lp675
S'administrative_area_level_2'
p676
aS'political'
p677
asg665
S'Kings'
p678
sa(dp679
g659
S'New York'
p680
sg661
(lp681
S'administrative_area_level_1'
p682
aS'political'
p683
asg665
S'NY'
p684
sa(dp685
g659
S'United States'
p686
sg661
(lp687
S'country'
p688
aS'political'
p689
asg665
S'US'
p690
sasS'formatted_address'
p691
S'Brooklyn, NY, USA'
p692
sg661
(lp693
S'sublocality'
p694
aS'political'
p695
asS'postcode_localities'
p696
(lp697
sa(dp698
g638
(dp699
g640
S'APPROXIMATE'
p700
sg642
(dp701
g644
(dp702
g646
F40.739446
sg647
F-73.8333651
ssg648
(dp703
g646
F40.5695637
sg647
F-74.0420049
sssg650
(dp704
g644
(dp705
g646
F40.739446
sg647
F-73.8333651
ssg648
(dp706
g646
F40.5695637
sg647
F-74.0420049
sssg654
(dp707
g646
F40.6528762
sg647
F-73.95949399999999
sssg656
(lp708
(dp709
g659
S'Kings'
p710
sg661
(lp711
S'administrative_area_level_2'
p712
aS'political'
p713
asg665
S'Kings'
p714
sa(dp715
g659
S'New York'
p716
sg661
(lp717
S'administrative_area_level_1'
p718
aS'political'
p719
asg665
S'NY'
p720
sa(dp721
g659
S'United States'
p722
sg661
(lp723
S'country'
p724
aS'political'
p725
asg665
S'US'
p726
sasg691
S'Brooklyn, NY, USA'
p727
sg661
(lp728
S'administrative_area_level_2'
p729
aS'political'
p730
asg696
(lp731
sassS'Middletown,+Connecticut,+United+States'
p732
(dp733
S'status'
p734
S'OK'
p735
sS'results'
p736
(lp737
(dp738
S'geometry'
p739
(dp740
S'location_type'
p741
S'APPROXIMATE'
p742
sS'bounds'
p743
(dp744
S'northeast'
p745
(dp746
S'lat'
p747
F41.6043499
sS'lng'
p748
F-72.55094489999999
ssS'southwest'
p749
(dp750
g747
F41.495045
sg748
F-72.7546402
sssS'viewport'
p751
(dp752
g745
(dp753
g747
F41.6043499
sg748
F-72.55094489999999
ssg749
(dp754
g747
F41.495045
sg748
F-72.7546402
sssS'location'
p755
(dp756
g747
F41.5623209
sg748
F-72.6506488
sssS'address_components'
p757
(lp758
(dp759
S'long_name'
p760
S'Middletown'
p761
sS'types'
p762
(lp763
S'locality'
p764
aS'political'
p765
asS'short_name'
p766
S'Middletown'
p767
sa(dp768
g760
S'Middlesex'
p769
sg762
(lp770
S'administrative_area_level_2'
p771
aS'political'
p772
asg766
S'Middlesex'
p773
sa(dp774
g760
S'Connecticut'
p775
sg762
(lp776
S'administrative_area_level_1'
p777
aS'political'
p778
asg766
S'CT'
p779
sa(dp780
g760
S'United States'
p781
sg762
(lp782
S'country'
p783
aS'political'
p784
asg766
S'US'
p785
sasS'formatted_address'
p786
S'Middletown, CT, USA'
p787
sg762
(lp788
S'locality'
p789
aS'political'
p790
asS'postcode_localities'
p791
(lp792
sassS'Washington,+United+States'
p793
(dp794
S'status'
p795
S'OK'
p796
sS'results'
p797
(lp798
(dp799
S'geometry'
p800
(dp801
S'location_type'
p802
S'APPROXIMATE'
p803
sS'bounds'
p804
(dp805
S'northeast'
p806
(dp807
S'lat'
p808
F38.995548
sS'lng'
p809
F-76.909393
ssS'southwest'
p810
(dp811
g808
F38.7916449
sg809
F-77.119759
sssS'viewport'
p812
(dp813
g806
(dp814
g808
F38.995548
sg809
F-76.909393
ssg810
(dp815
g808
F38.7916449
sg809
F-77.119759
sssS'location'
p816
(dp817
g808
F38.8951118
sg809
F-77.0363658
sssS'address_components'
p818
(lp819
(dp820
S'long_name'
p821
S'Washington'
p822
sS'types'
p823
(lp824
S'locality'
p825
aS'political'
p826
asS'short_name'
p827
S'Washington'
p828
sa(dp829
g821
S'District of Columbia'
p830
sg823
(lp831
S'administrative_area_level_2'
p832
aS'political'
p833
asg827
S'District of Columbia'
p834
sa(dp835
g821
S'District of Columbia'
p836
sg823
(lp837
S'administrative_area_level_1'
p838
aS'political'
p839
asg827
S'DC'
p840
sa(dp841
g821
S'United States'
p842
sg823
(lp843
S'country'
p844
aS'political'
p845
asg827
S'US'
p846
sasS'formatted_address'
p847
S'Washington, DC, USA'
p848
sg823
(lp849
S'locality'
p850
aS'political'
p851
asS'postcode_localities'
p852
(lp853
sa(dp854
g800
(dp855
g802
S'APPROXIMATE'
p856
sg804
(dp857
g806
(dp858
g808
F38.6752641
sg809
F-87.1383089
ssg810
(dp859
g808
F38.6415659
sg809
F-87.208556
sssg812
(dp860
g806
(dp861
g808
F38.6752641
sg809
F-87.1383089
ssg810
(dp862
g808
F38.6415659
sg809
F-87.208556
sssg816
(dp863
g808
F38.65921520000001
sg809
F-87.172789
sssg818
(lp864
(dp865
g821
S'Washington'
p866
sg823
(lp867
S'locality'
p868
aS'political'
p869
asg827
S'Washington'
p870
sa(dp871
g821
S'Washington'
p872
sg823
(lp873
S'administrative_area_level_3'
p874
aS'political'
p875
asg827
S'Washington'
p876
sa(dp877
g821
S'Daviess'
p878
sg823
(lp879
S'administrative_area_level_2'
p880
aS'political'
p881
asg827
S'Daviess'
p882
sa(dp883
g821
S'Indiana'
p884
sg823
(lp885
S'administrative_area_level_1'
p886
aS'political'
p887
asg827
S'IN'
p888
sa(dp889
g821
S'United States'
p890
sg823
(lp891
S'country'
p892
aS'political'
p893
asg827
S'US'
p894
sa(dp895
g821
S'47501'
p896
sg823
(lp897
S'postal_code'
p898
asg827
S'47501'
p899
sasg847
S'Washington, IN 47501, USA'
p900
sg823
(lp901
S'locality'
p902
aS'political'
p903
asg852
(lp904
sa(dp905
g800
(dp906
g802
S'APPROXIMATE'
p907
sg804
(dp908
g806
(dp909
g808
F38.5904319
sg809
F-90.95806100000001
ssg810
(dp910
g808
F38.5209199
sg809
F-91.079352
sssg812
(dp911
g806
(dp912
g808
F38.5904319
sg809
F-90.95806100000001
ssg810
(dp913
g808
F38.5209199
sg809
F-91.079352
sssg816
(dp914
g808
F38.55810719999999
sg809
F-91.01208779999999
sssg818
(lp915
(dp916
g821
S'Washington'
p917
sg823
(lp918
S'locality'
p919
aS'political'
p920
asg827
S'Washington'
p921
sa(dp922
g821
S'Washington'
p923
sg823
(lp924
S'administrative_area_level_3'
p925
aS'political'
p926
asg827
S'Washington'
p927
sa(dp928
g821
S'Franklin'
p929
sg823
(lp930
S'administrative_area_level_2'
p931
aS'political'
p932
asg827
S'Franklin'
p933
sa(dp934
g821
S'Missouri'
p935
sg823
(lp936
S'administrative_area_level_1'
p937
aS'political'
p938
asg827
S'MO'
p939
sa(dp940
g821
S'United States'
p941
sg823
(lp942
S'country'
p943
aS'political'
p944
asg827
S'US'
p945
sasg847
S'Washington, MO, USA'
p946
sg823
(lp947
S'locality'
p948
aS'political'
p949
asg852
(lp950
sa(dp951
g800
(dp952
g802
S'APPROXIMATE'
p953
sg804
(dp954
g806
(dp955
g808
F35.6089451
sg809
F-76.97561
ssg810
(dp956
g808
F35.5280192
sg809
F-77.1194259
sssg812
(dp957
g806
(dp958
g808
F35.6089451
sg809
F-76.97561
ssg810
(dp959
g808
F35.5280192
sg809
F-77.1194259
sssg816
(dp960
g808
F35.54655169999999
sg809
F-77.0521742
sssg818
(lp961
(dp962
g821
S'Washington'
p963
sg823
(lp964
S'locality'
p965
aS'political'
p966
asg827
S'Washington'
p967
sa(dp968
g821
S'Washington'
p969
sg823
(lp970
S'administrative_area_level_3'
p971
aS'political'
p972
asg827
S'Washington'
p973
sa(dp974
g821
S'Beaufort'
p975
sg823
(lp976
S'administrative_area_level_2'
p977
aS'political'
p978
asg827
S'Beaufort'
p979
sa(dp980
g821
S'North Carolina'
p981
sg823
(lp982
S'administrative_area_level_1'
p983
aS'political'
p984
asg827
S'NC'
p985
sa(dp986
g821
S'United States'
p987
sg823
(lp988
S'country'
p989
aS'political'
p990
asg827
S'US'
p991
sasg847
S'Washington, NC, USA'
p992
sg823
(lp993
S'locality'
p994
aS'political'
p995
asg852
(lp996
sa(dp997
g800
(dp998
g802
S'APPROXIMATE'
p999
sg804
(dp1000
g806
(dp1001
g808
F37.1912612
sg809
F-113.4216337
ssg810
(dp1002
g808
F37.0449575
sg809
F-113.5366738
sssg812
(dp1003
g806
(dp1004
g808
F37.1912612
sg809
F-113.4216337
ssg810
(dp1005
g808
F37.0449575
sg809
F-113.5366738
sssg816
(dp1006
g808
F37.1305373
sg809
F-113.5082867
sssg818
(lp1007
(dp1008
g821
S'Washington'
p1009
sg823
(lp1010
S'locality'
p1011
aS'political'
p1012
asg827
S'Washington'
p1013
sa(dp1014
g821
S'Washington'
p1015
sg823
(lp1016
S'administrative_area_level_2'
p1017
aS'political'
p1018
asg827
S'Washington'
p1019
sa(dp1020
g821
S'Utah'
p1021
sg823
(lp1022
S'administrative_area_level_1'
p1023
aS'political'
p1024
asg827
S'UT'
p1025
sa(dp1026
g821
S'United States'
p1027
sg823
(lp1028
S'country'
p1029
aS'political'
p1030
asg827
S'US'
p1031
sasg847
S'Washington, UT, USA'
p1032
sg823
(lp1033
S'locality'
p1034
aS'political'
p1035
asg852
(lp1036
sa(dp1037
g800
(dp1038
g802
S'APPROXIMATE'
p1039
sg804
(dp1040
g806
(dp1041
g808
F40.7352459
sg809
F-89.377488
ssg810
(dp1042
g808
F40.674965
sg809
F-89.483949
sssg812
(dp1043
g806
(dp1044
g808
F40.7352459
sg809
F-89.377488
ssg810
(dp1045
g808
F40.674965
sg809
F-89.483949
sssg816
(dp1046
g808
F40.7036482
sg809
F-89.4073123
sssg818
(lp1047
(dp1048
g821
S'Washington'
p1049
sg823
(lp1050
S'locality'
p1051
aS'political'
p1052
asg827
S'Washington'
p1053
sa(dp1054
g821
S'Washington'
p1055
sg823
(lp1056
S'administrative_area_level_3'
p1057
aS'political'
p1058
asg827
S'Washington'
p1059
sa(dp1060
g821
S'Tazewell'
p1061
sg823
(lp1062
S'administrative_area_level_2'
p1063
aS'political'
p1064
asg827
S'Tazewell'
p1065
sa(dp1066
g821
S'Illinois'
p1067
sg823
(lp1068
S'administrative_area_level_1'
p1069
aS'political'
p1070
asg827
S'IL'
p1071
sa(dp1072
g821
S'United States'
p1073
sg823
(lp1074
S'country'
p1075
aS'political'
p1076
asg827
S'US'
p1077
sasg847
S'Washington, IL, USA'
p1078
sg823
(lp1079
S'locality'
p1080
aS'political'
p1081
asg852
(lp1082
sassS'New+York'
p1083
(dp1084
S'status'
p1085
S'OK'
p1086
sS'results'
p1087
(lp1088
(dp1089
S'geometry'
p1090
(dp1091
S'location_type'
p1092
S'APPROXIMATE'
p1093
sS'bounds'
p1094
(dp1095
S'northeast'
p1096
(dp1097
S'lat'
p1098
F40.9152414
sS'lng'
p1099
F-73.70027209999999
ssS'southwest'
p1100
(dp1101
g1098
F40.495908
sg1099
F-74.2590879
sssS'viewport'
p1102
(dp1103
g1096
(dp1104
g1098
F40.9152414
sg1099
F-73.70027209999999
ssg1100
(dp1105
g1098
F40.4959143
sg1099
F-74.2557349
sssS'location'
p1106
(dp1107
g1098
F40.7143528
sg1099
F-74.00597309999999
sssS'address_components'
p1108
(lp1109
(dp1110
S'long_name'
p1111
S'New York'
p1112
sS'types'
p1113
(lp1114
S'locality'
p1115
aS'political'
p1116
asS'short_name'
p1117
S'New York'
p1118
sa(dp1119
g1111
S'New York'
p1120
sg1113
(lp1121
S'administrative_area_level_1'
p1122
aS'political'
p1123
asg1117
S'NY'
p1124
sa(dp1125
g1111
S'United States'
p1126
sg1113
(lp1127
S'country'
p1128
aS'political'
p1129
asg1117
S'US'
p1130
sasS'formatted_address'
p1131
S'New York, NY, USA'
p1132
sg1113
(lp1133
S'locality'
p1134
aS'political'
p1135
asS'postcode_localities'
p1136
(lp1137
sass.